target datalayout = "e-m:e-p270:32:32-p271:32:32-p272:64:64-i64:64-i128:128-f80:128-n8:16:32:64-S128"
target triple = "x86_64-pc-linux-gnu"

; Function Attrs: inlinehint mustprogress nounwind uwtable
define linkonce_odr noundef i32 @_ZN7rocksdb13DecodeFixed32EPKc(ptr noundef %0) #3 comdat {
  %2 = alloca ptr, align 8
  %3 = alloca i32, align 4
  store ptr %0, ptr %2, align 8, !tbaa !9
  call void @llvm.lifetime.start.p0(i64 4, ptr %3) #21
  %4 = load ptr, ptr %2, align 8, !tbaa !9
  call void @llvm.memcpy.p0.p0.i64(ptr align 4 %3, ptr align 1 %4, i64 4, i1 false)
  %5 = load i32, ptr %3, align 4, !tbaa !13
  call void @llvm.lifetime.end.p0(i64 4, ptr %3) #21
  ret i32 %5
}

; Function Attrs: mustprogress uwtable
define noundef i32 @_ZN7rocksdb4HashEPKcmj(ptr noundef %0, i64 noundef %1, i32 noundef %2) #1 {
  %4 = alloca ptr, align 8
  %5 = alloca i64, align 8
  %6 = alloca i32, align 4
  %7 = alloca i32, align 4
  %8 = alloca i32, align 4
  %9 = alloca ptr, align 8
  %10 = alloca i32, align 4
  %11 = alloca i32, align 4
  store ptr %0, ptr %4, align 8, !tbaa !9
  store i64 %1, ptr %5, align 8, !tbaa !11
  store i32 %2, ptr %6, align 4, !tbaa !13
  call void @llvm.lifetime.start.p0(i64 4, ptr %7) #21
  store i32 -962287725, ptr %7, align 4, !tbaa !13
  call void @llvm.lifetime.start.p0(i64 4, ptr %8) #21
  store i32 24, ptr %8, align 4, !tbaa !13
  call void @llvm.lifetime.start.p0(i64 8, ptr %9) #21
  %12 = load ptr, ptr %4, align 8, !tbaa !9
  %13 = load i64, ptr %5, align 8, !tbaa !11
  %14 = getelementptr inbounds nuw i8, ptr %12, i64 %13
  store ptr %14, ptr %9, align 8, !tbaa !9
  call void @llvm.lifetime.start.p0(i64 4, ptr %10) #21
  %15 = load i32, ptr %6, align 4, !tbaa !13
  %16 = zext i32 %15 to i64
  %17 = load i64, ptr %5, align 8, !tbaa !11
  %18 = mul i64 %17, 3332679571
  %19 = xor i64 %16, %18
  %20 = trunc i64 %19 to i32
  store i32 %20, ptr %10, align 4, !tbaa !13
  br label %21

21:                                               ; preds = %26, %3
  %22 = load ptr, ptr %4, align 8, !tbaa !9
  %23 = getelementptr inbounds i8, ptr %22, i64 4
  %24 = load ptr, ptr %9, align 8, !tbaa !9
  %25 = icmp ule ptr %23, %24
  br i1 %25, label %26, label %40

26:                                               ; preds = %21
  call void @llvm.lifetime.start.p0(i64 4, ptr %11) #21
  %27 = load ptr, ptr %4, align 8, !tbaa !9
  %28 = call noundef i32 @_ZN7rocksdb13DecodeFixed32EPKc(ptr noundef %27)
  store i32 %28, ptr %11, align 4, !tbaa !13
  %29 = load ptr, ptr %4, align 8, !tbaa !9
  %30 = getelementptr inbounds i8, ptr %29, i64 4
  store ptr %30, ptr %4, align 8, !tbaa !9
  %31 = load i32, ptr %11, align 4, !tbaa !13
  %32 = load i32, ptr %10, align 4, !tbaa !13
  %33 = add i32 %32, %31
  store i32 %33, ptr %10, align 4, !tbaa !13
  %34 = load i32, ptr %10, align 4, !tbaa !13
  %35 = mul i32 %34, -962287725
  store i32 %35, ptr %10, align 4, !tbaa !13
  %36 = load i32, ptr %10, align 4, !tbaa !13
  %37 = lshr i32 %36, 16
  %38 = load i32, ptr %10, align 4, !tbaa !13
  %39 = xor i32 %38, %37
  store i32 %39, ptr %10, align 4, !tbaa !13
  call void @llvm.lifetime.end.p0(i64 4, ptr %11) #21
  br label %21, !llvm.loop !15

40:                                               ; preds = %21
  %41 = load ptr, ptr %9, align 8, !tbaa !9
  %42 = load ptr, ptr %4, align 8, !tbaa !9
  %43 = ptrtoint ptr %41 to i64
  %44 = ptrtoint ptr %42 to i64
  %45 = sub i64 %43, %44
  switch i64 %45, label %75 [
    i64 3, label %46
    i64 2, label %54
    i64 1, label %62
  ]

46:                                               ; preds = %40
  %47 = load ptr, ptr %4, align 8, !tbaa !9
  %48 = getelementptr inbounds i8, ptr %47, i64 2
  %49 = load i8, ptr %48, align 1, !tbaa !17
  %50 = sext i8 %49 to i32
  %51 = shl i32 %50, 16
  %52 = load i32, ptr %10, align 4, !tbaa !13
  %53 = add i32 %52, %51
  store i32 %53, ptr %10, align 4, !tbaa !13
  br label %54

54:                                               ; preds = %40, %46
  %55 = load ptr, ptr %4, align 8, !tbaa !9
  %56 = getelementptr inbounds i8, ptr %55, i64 1
  %57 = load i8, ptr %56, align 1, !tbaa !17
  %58 = sext i8 %57 to i32
  %59 = shl i32 %58, 8
  %60 = load i32, ptr %10, align 4, !tbaa !13
  %61 = add i32 %60, %59
  store i32 %61, ptr %10, align 4, !tbaa !13
  br label %62

62:                                               ; preds = %40, %54
  %63 = load ptr, ptr %4, align 8, !tbaa !9
  %64 = getelementptr inbounds i8, ptr %63, i64 0
  %65 = load i8, ptr %64, align 1, !tbaa !17
  %66 = sext i8 %65 to i32
  %67 = load i32, ptr %10, align 4, !tbaa !13
  %68 = add i32 %67, %66
  store i32 %68, ptr %10, align 4, !tbaa !13
  %69 = load i32, ptr %10, align 4, !tbaa !13
  %70 = mul i32 %69, -962287725
  store i32 %70, ptr %10, align 4, !tbaa !13
  %71 = load i32, ptr %10, align 4, !tbaa !13
  %72 = lshr i32 %71, 24
  %73 = load i32, ptr %10, align 4, !tbaa !13
  %74 = xor i32 %73, %72
  store i32 %74, ptr %10, align 4, !tbaa !13
  br label %75

75:                                               ; preds = %40, %62
  %76 = load i32, ptr %10, align 4, !tbaa !13
  call void @llvm.lifetime.end.p0(i64 4, ptr %10) #21
  call void @llvm.lifetime.end.p0(i64 8, ptr %9) #21
  call void @llvm.lifetime.end.p0(i64 4, ptr %8) #21
  call void @llvm.lifetime.end.p0(i64 4, ptr %7) #21
  ret i32 %76
}